target datalayout = "e-m:e-p270:32:32-p271:32:32-p272:64:64-i64:64-i128:128-f80:128-n8:16:32:64-S128"
target triple = "x86_64-pc-linux-gnu"

%struct.gmx_ana_pos_t = type <{ ptr, ptr, ptr, %struct.gmx_ana_indexmap_t, i32, [4 x i8] }>
%struct.gmx_ana_indexmap_t = type { i32, ptr, ptr, %struct.t_blocka, ptr, %struct.t_blocka, i8 }
%struct.t_blocka = type { i32, ptr, i32, ptr, i32, i32 }
%struct.gmx_ana_index_t = type { i32, ptr, i32 }

; Function Attrs: mustprogress nounwind uwtable
define void @_Z24gmx_ana_pos_add_to_groupP15gmx_ana_index_tP13gmx_ana_pos_ti(ptr noundef %0, ptr noundef %1, i32 noundef %2) #2 {
  %4 = alloca ptr, align 8
  %5 = alloca ptr, align 8
  %6 = alloca i32, align 4
  %7 = alloca i32, align 4
  store ptr %0, ptr %4, align 8
  store ptr %1, ptr %5, align 8
  store i32 %2, ptr %6, align 4
  %8 = load ptr, ptr %5, align 8
  %9 = getelementptr inbounds %struct.gmx_ana_pos_t, ptr %8, i32 0, i32 3
  %10 = getelementptr inbounds %struct.gmx_ana_indexmap_t, ptr %9, i32 0, i32 3
  %11 = getelementptr inbounds %struct.t_blocka, ptr %10, i32 0, i32 1
  %12 = load ptr, ptr %11, align 8
  %13 = load i32, ptr %6, align 4
  %14 = sext i32 %13 to i64
  %15 = getelementptr inbounds i32, ptr %12, i64 %14
  %16 = load i32, ptr %15, align 4
  store i32 %16, ptr %7, align 4
  br label %17

17:                                               ; preds = %49, %3
  %18 = load i32, ptr %7, align 4
  %19 = load ptr, ptr %5, align 8
  %20 = getelementptr inbounds %struct.gmx_ana_pos_t, ptr %19, i32 0, i32 3
  %21 = getelementptr inbounds %struct.gmx_ana_indexmap_t, ptr %20, i32 0, i32 3
  %22 = getelementptr inbounds %struct.t_blocka, ptr %21, i32 0, i32 1
  %23 = load ptr, ptr %22, align 8
  %24 = load i32, ptr %6, align 4
  %25 = add nsw i32 %24, 1
  %26 = sext i32 %25 to i64
  %27 = getelementptr inbounds i32, ptr %23, i64 %26
  %28 = load i32, ptr %27, align 4
  %29 = icmp slt i32 %18, %28
  br i1 %29, label %30, label %52

30:                                               ; preds = %17
  %31 = load ptr, ptr %5, align 8
  %32 = getelementptr inbounds %struct.gmx_ana_pos_t, ptr %31, i32 0, i32 3
  %33 = getelementptr inbounds %struct.gmx_ana_indexmap_t, ptr %32, i32 0, i32 3
  %34 = getelementptr inbounds %struct.t_blocka, ptr %33, i32 0, i32 3
  %35 = load ptr, ptr %34, align 8
  %36 = load i32, ptr %7, align 4
  %37 = sext i32 %36 to i64
  %38 = getelementptr inbounds i32, ptr %35, i64 %37
  %39 = load i32, ptr %38, align 4
  %40 = load ptr, ptr %4, align 8
  %41 = getelementptr inbounds %struct.gmx_ana_index_t, ptr %40, i32 0, i32 1
  %42 = load ptr, ptr %41, align 8
  %43 = load ptr, ptr %4, align 8
  %44 = getelementptr inbounds %struct.gmx_ana_index_t, ptr %43, i32 0, i32 0
  %45 = load i32, ptr %44, align 8
  %46 = add nsw i32 %45, 1
  store i32 %46, ptr %44, align 8
  %47 = sext i32 %45 to i64
  %48 = getelementptr inbounds i32, ptr %42, i64 %47
  store i32 %39, ptr %48, align 4
  br label %49

49:                                               ; preds = %30
  %50 = load i32, ptr %7, align 4
  %51 = add nsw i32 %50, 1
  store i32 %51, ptr %7, align 4
  br label %17, !llvm.loop !8

52:                                               ; preds = %17
  ret void
}