; Function Attrs: mustprogress nofree norecurse nosync nounwind memory(readwrite, inaccessiblemem: none) uwtable
define void @_Z24gmx_ana_pos_add_to_groupP15gmx_ana_index_tP13gmx_ana_pos_ti(ptr nocapture noundef %0, ptr nocapture noundef readonly %1, i32 noundef %2) local_unnamed_addr #8 {
  %4 = getelementptr inbounds i8, ptr %1, i64 56
  %5 = load ptr, ptr %4, align 8
  %6 = sext i32 %2 to i64
  %7 = getelementptr i32, ptr %5, i64 %6
  %8 = load i32, ptr %7, align 4
  %9 = getelementptr i8, ptr %7, i64 4
  %10 = load i32, ptr %9, align 4
  %11 = icmp slt i32 %8, %10
  br i1 %11, label %.lr.ph, label %._crit_edge

.lr.ph:                                           ; preds = %3
  %12 = getelementptr inbounds i8, ptr %1, i64 72
  %13 = getelementptr inbounds i8, ptr %0, i64 8
  %14 = sext i32 %8 to i64
  br label %15

15:                                               ; preds = %.lr.ph, %15
  %indvars.iv = phi i64 [ %14, %.lr.ph ], [ %indvars.iv.next, %15 ]
  %16 = load ptr, ptr %12, align 8
  %17 = getelementptr inbounds i32, ptr %16, i64 %indvars.iv
  %18 = load i32, ptr %17, align 4
  %19 = load ptr, ptr %13, align 8
  %20 = load i32, ptr %0, align 8
  %21 = add nsw i32 %20, 1
  store i32 %21, ptr %0, align 8
  %22 = sext i32 %20 to i64
  %23 = getelementptr inbounds i32, ptr %19, i64 %22
  store i32 %18, ptr %23, align 4
  %indvars.iv.next = add nsw i64 %indvars.iv, 1
  %24 = load ptr, ptr %4, align 8
  %25 = getelementptr i32, ptr %24, i64 %6
  %26 = getelementptr i8, ptr %25, i64 4
  %27 = load i32, ptr %26, align 4
  %28 = sext i32 %27 to i64
  %29 = icmp slt i64 %indvars.iv.next, %28
  br i1 %29, label %15, label %._crit_edge, !llvm.loop !8

._crit_edge:                                      ; preds = %15, %3
  ret void
}